; Function Attrs: mustprogress nounwind uwtable
define internal fastcc void @_ZNSt10unique_ptrIN12_GLOBAL__N_117BinaryFileHandlerESt14default_deleteIS1_EED2Ev(ptr nocapture noundef nonnull align 8 dereferenceable(8) %0) unnamed_addr #3 align 2 {
  %2 = load ptr, ptr %0, align 8
  %.not = icmp eq ptr %2, null
  br i1 %.not, label %21, label %3

3:                                                ; preds = %1
  %4 = getelementptr inbounds nuw i8, ptr %2, i64 48
  tail call void @_ZNSt7__cxx1112basic_stringIcSt11char_traitsIcESaIcEED1Ev(ptr noundef nonnull align 8 dereferenceable(32) %4) #24
  %5 = getelementptr inbounds nuw i8, ptr %2, i64 8
  %6 = getelementptr inbounds i8, ptr %2, i64 20
  %7 = load i32, ptr %6, align 4
  %8 = icmp eq i32 %7, 0
  br i1 %8, label %_ZNKSt14default_deleteIN12_GLOBAL__N_117BinaryFileHandlerEEclEPS1_.exit, label %9

9:                                                ; preds = %3
  %10 = getelementptr inbounds i8, ptr %2, i64 16
  %11 = load i32, ptr %10, align 8
  %.not10.i.i.i = icmp eq i32 %11, 0
  br i1 %.not10.i.i.i, label %_ZNKSt14default_deleteIN12_GLOBAL__N_117BinaryFileHandlerEEclEPS1_.exit, label %.lr.ph.preheader.i.i.i

.lr.ph.preheader.i.i.i:                           ; preds = %9
  %12 = zext i32 %11 to i64
  br label %.lr.ph.i.i.i

.lr.ph.i.i.i:                                     ; preds = %19, %.lr.ph.preheader.i.i.i
  %indvars.iv.i.i.i = phi i64 [ 0, %.lr.ph.preheader.i.i.i ], [ %indvars.iv.next.i.i.i, %19 ]
  %13 = load ptr, ptr %5, align 8
  %14 = getelementptr inbounds ptr, ptr %13, i64 %indvars.iv.i.i.i
  %15 = load ptr, ptr %14, align 8
  %magicptr.i.i.i = ptrtoint ptr %15 to i64
  switch i64 %magicptr.i.i.i, label %16 [
    i64 0, label %19
    i64 -8, label %19
  ]

16:                                               ; preds = %.lr.ph.i.i.i
  %17 = load i64, ptr %15, align 8
  %18 = add i64 %17, 41
  tail call void @_ZN4llvm17deallocate_bufferEPvmm(ptr noundef nonnull %15, i64 noundef %18, i64 noundef 8) #24
  br label %19

19:                                               ; preds = %16, %.lr.ph.i.i.i, %.lr.ph.i.i.i
  %indvars.iv.next.i.i.i = add nuw nsw i64 %indvars.iv.i.i.i, 1
  %.not.i.i.i = icmp eq i64 %indvars.iv.next.i.i.i, %12
  br i1 %.not.i.i.i, label %_ZNKSt14default_deleteIN12_GLOBAL__N_117BinaryFileHandlerEEclEPS1_.exit, label %.lr.ph.i.i.i, !llvm.loop !393

_ZNKSt14default_deleteIN12_GLOBAL__N_117BinaryFileHandlerEEclEPS1_.exit: ; preds = %19, %3, %9
  %20 = load ptr, ptr %5, align 8
  tail call void @free(ptr noundef %20) #24
  tail call void @_ZdlPvm(ptr noundef nonnull %2, i64 noundef 88) #29
  br label %21

21:                                               ; preds = %_ZNKSt14default_deleteIN12_GLOBAL__N_117BinaryFileHandlerEEclEPS1_.exit, %1
  store ptr null, ptr %0, align 8
  ret void
}